target datalayout = "e-m:e-p270:32:32-p271:32:32-p272:64:64-i64:64-i128:128-f80:128-n8:16:32:64-S128"
target triple = "x86_64-pc-linux-gnu"

%struct.Nwk_Man_t_ = type { ptr, ptr, ptr, ptr, ptr, [5 x i32], i32, ptr, ptr, ptr, ptr, ptr, i32, i32, i32, i32, i32 }
%struct.Nwk_Obj_t_ = type { ptr, ptr, ptr, %union.anon, i32, i32, i32, i32, float, float, float, i32, i32, i32, ptr }
%union.anon = type { ptr }
%struct.Vec_Ptr_t_ = type { i32, i32, ptr }

@.str = private unnamed_addr constant [58 x i8] c"Node %d has fanin %d that is not in a topological order.\0A\00", align 1
@.str.1 = private unnamed_addr constant [57 x i8] c"Box %d has input %d that is not in a topological order.\0A\00", align 1

; Function Attrs: nounwind uwtable
define internal void @Nwk_ObjSetTravIdCurrent(ptr noundef %0) #0 {
  %2 = alloca ptr, align 8
  store ptr %0, ptr %2, align 8
  %3 = load ptr, ptr %2, align 8
  %4 = getelementptr inbounds %struct.Nwk_Obj_t_, ptr %3, i32 0, i32 0
  %5 = load ptr, ptr %4, align 8
  %6 = getelementptr inbounds %struct.Nwk_Man_t_, ptr %5, i32 0, i32 12
  %7 = load i32, ptr %6, align 8
  %8 = load ptr, ptr %2, align 8
  %9 = getelementptr inbounds %struct.Nwk_Obj_t_, ptr %8, i32 0, i32 6
  store i32 %7, ptr %9, align 8
  ret void
}

; Function Attrs: nounwind uwtable
define internal ptr @Nwk_ManCo(ptr noundef %0, i32 noundef %1) #0 {
  %3 = alloca ptr, align 8
  %4 = alloca i32, align 4
  store ptr %0, ptr %3, align 8
  store i32 %1, ptr %4, align 4
  %5 = load ptr, ptr %3, align 8
  %6 = getelementptr inbounds %struct.Nwk_Man_t_, ptr %5, i32 0, i32 3
  %7 = load ptr, ptr %6, align 8
  %8 = load i32, ptr %4, align 4
  %9 = call ptr @Vec_PtrEntry(ptr noundef %7, i32 noundef %8)
  ret ptr %9
}

; Function Attrs: nounwind uwtable
define internal i32 @Nwk_ObjIsCi(ptr noundef %0) #0 {
  %2 = alloca ptr, align 8
  store ptr %0, ptr %2, align 8
  %3 = load ptr, ptr %2, align 8
  %4 = getelementptr inbounds %struct.Nwk_Obj_t_, ptr %3, i32 0, i32 4
  %5 = load i32, ptr %4, align 8
  %6 = and i32 %5, 7
  %7 = icmp eq i32 %6, 1
  %8 = zext i1 %7 to i32
  ret i32 %8
}

; Function Attrs: nounwind uwtable
define internal i32 @Nwk_ObjIsTravIdCurrent(ptr noundef %0) #0 {
  %2 = alloca ptr, align 8
  store ptr %0, ptr %2, align 8
  %3 = load ptr, ptr %2, align 8
  %4 = getelementptr inbounds %struct.Nwk_Obj_t_, ptr %3, i32 0, i32 6
  %5 = load i32, ptr %4, align 8
  %6 = load ptr, ptr %2, align 8
  %7 = getelementptr inbounds %struct.Nwk_Obj_t_, ptr %6, i32 0, i32 0
  %8 = load ptr, ptr %7, align 8
  %9 = getelementptr inbounds %struct.Nwk_Man_t_, ptr %8, i32 0, i32 12
  %10 = load i32, ptr %9, align 8
  %11 = icmp eq i32 %5, %10
  %12 = zext i1 %11 to i32
  ret i32 %12
}

; Function Attrs: nounwind uwtable
define internal i32 @Nwk_ObjIsCo(ptr noundef %0) #0 {
  %2 = alloca ptr, align 8
  store ptr %0, ptr %2, align 8
  %3 = load ptr, ptr %2, align 8
  %4 = getelementptr inbounds %struct.Nwk_Obj_t_, ptr %3, i32 0, i32 4
  %5 = load i32, ptr %4, align 8
  %6 = and i32 %5, 7
  %7 = icmp eq i32 %6, 2
  %8 = zext i1 %7 to i32
  ret i32 %8
}

; Function Attrs: nounwind uwtable
define internal i32 @Nwk_ObjIsNode(ptr noundef %0) #0 {
  %2 = alloca ptr, align 8
  store ptr %0, ptr %2, align 8
  %3 = load ptr, ptr %2, align 8
  %4 = getelementptr inbounds %struct.Nwk_Obj_t_, ptr %3, i32 0, i32 4
  %5 = load i32, ptr %4, align 8
  %6 = and i32 %5, 7
  %7 = icmp eq i32 %6, 3
  %8 = zext i1 %7 to i32
  ret i32 %8
}

; Function Attrs: nounwind uwtable
define internal ptr @Vec_PtrEntry(ptr noundef %0, i32 noundef %1) #0 {
  %3 = alloca ptr, align 8
  %4 = alloca i32, align 4
  store ptr %0, ptr %3, align 8
  store i32 %1, ptr %4, align 4
  %5 = load ptr, ptr %3, align 8
  %6 = getelementptr inbounds %struct.Vec_Ptr_t_, ptr %5, i32 0, i32 2
  %7 = load ptr, ptr %6, align 8
  %8 = load i32, ptr %4, align 4
  %9 = sext i32 %8 to i64
  %10 = getelementptr inbounds ptr, ptr %7, i64 %9
  %11 = load ptr, ptr %10, align 8
  ret ptr %11
}

; Function Attrs: nounwind uwtable
define internal i32 @Vec_PtrSize(ptr noundef %0) #0 {
  %2 = alloca ptr, align 8
  store ptr %0, ptr %2, align 8
  %3 = load ptr, ptr %2, align 8
  %4 = getelementptr inbounds %struct.Vec_Ptr_t_, ptr %3, i32 0, i32 1
  %5 = load i32, ptr %4, align 4
  ret i32 %5
}

; Function Attrs: nounwind uwtable
define i32 @Nwk_ManVerifyTopoOrder(ptr noundef %0) #0 {
  %2 = alloca i32, align 4
  %3 = alloca ptr, align 8
  %4 = alloca ptr, align 8
  %5 = alloca ptr, align 8
  %6 = alloca i32, align 4
  %7 = alloca i32, align 4
  %8 = alloca i32, align 4
  %9 = alloca i32, align 4
  %10 = alloca i32, align 4
  store ptr %0, ptr %3, align 8
  %11 = load ptr, ptr %3, align 8
  call void @Nwk_ManIncrementTravId(ptr noundef %11)
  store i32 0, ptr %6, align 4
  br label %12

12:                                               ; preds = %136, %1
  %13 = load i32, ptr %6, align 4
  %14 = load ptr, ptr %3, align 8
  %15 = getelementptr inbounds %struct.Nwk_Man_t_, ptr %14, i32 0, i32 4
  %16 = load ptr, ptr %15, align 8
  %17 = call i32 @Vec_PtrSize(ptr noundef %16)
  %18 = icmp slt i32 %13, %17
  br i1 %18, label %19, label %25

19:                                               ; preds = %12
  %20 = load ptr, ptr %3, align 8
  %21 = getelementptr inbounds %struct.Nwk_Man_t_, ptr %20, i32 0, i32 4
  %22 = load ptr, ptr %21, align 8
  %23 = load i32, ptr %6, align 4
  %24 = call ptr @Vec_PtrEntry(ptr noundef %22, i32 noundef %23)
  store ptr %24, ptr %4, align 8
  br label %25

25:                                               ; preds = %19, %12
  %26 = phi i1 [ false, %12 ], [ true, %19 ]
  br i1 %26, label %27, label %139

27:                                               ; preds = %25
  %28 = load ptr, ptr %4, align 8
  %29 = icmp eq ptr %28, null
  br i1 %29, label %30, label %31

30:                                               ; preds = %27
  br label %135

31:                                               ; preds = %27
  %32 = load ptr, ptr %4, align 8
  %33 = call i32 @Nwk_ObjIsNode(ptr noundef %32)
  %34 = icmp ne i32 %33, 0
  br i1 %34, label %39, label %35

35:                                               ; preds = %31
  %36 = load ptr, ptr %4, align 8
  %37 = call i32 @Nwk_ObjIsCo(ptr noundef %36)
  %38 = icmp ne i32 %37, 0
  br i1 %38, label %39, label %74

39:                                               ; preds = %35, %31
  store i32 0, ptr %7, align 4
  br label %40

40:                                               ; preds = %70, %39
  %41 = load i32, ptr %7, align 4
  %42 = load ptr, ptr %4, align 8
  %43 = getelementptr inbounds %struct.Nwk_Obj_t_, ptr %42, i32 0, i32 11
  %44 = load i32, ptr %43, align 4
  %45 = icmp slt i32 %41, %44
  br i1 %45, label %46, label %55

46:                                               ; preds = %40
  %47 = load ptr, ptr %4, align 8
  %48 = getelementptr inbounds %struct.Nwk_Obj_t_, ptr %47, i32 0, i32 14
  %49 = load ptr, ptr %48, align 8
  %50 = load i32, ptr %7, align 4
  %51 = sext i32 %50 to i64
  %52 = getelementptr inbounds ptr, ptr %49, i64 %51
  %53 = load ptr, ptr %52, align 8
  store ptr %53, ptr %5, align 8
  %54 = icmp ne ptr %53, null
  br label %55

55:                                               ; preds = %46, %40
  %56 = phi i1 [ false, %40 ], [ %54, %46 ]
  br i1 %56, label %57, label %73

57:                                               ; preds = %55
  %58 = load ptr, ptr %5, align 8
  %59 = call i32 @Nwk_ObjIsTravIdCurrent(ptr noundef %58)
  %60 = icmp ne i32 %59, 0
  br i1 %60, label %69, label %61

61:                                               ; preds = %57
  %62 = load ptr, ptr %4, align 8
  %63 = getelementptr inbounds %struct.Nwk_Obj_t_, ptr %62, i32 0, i32 5
  %64 = load i32, ptr %63, align 4
  %65 = load ptr, ptr %5, align 8
  %66 = getelementptr inbounds %struct.Nwk_Obj_t_, ptr %65, i32 0, i32 5
  %67 = load i32, ptr %66, align 4
  %68 = call i32 (ptr, ...) @printf(ptr noundef @.str, i32 noundef %64, i32 noundef %67)
  store i32 0, ptr %2, align 4
  br label %140

69:                                               ; preds = %57
  br label %70

70:                                               ; preds = %69
  %71 = load i32, ptr %7, align 4
  %72 = add nsw i32 %71, 1
  store i32 %72, ptr %7, align 4
  br label %40, !llvm.loop !4

73:                                               ; preds = %55
  br label %133

74:                                               ; preds = %35
  %75 = load ptr, ptr %4, align 8
  %76 = call i32 @Nwk_ObjIsCi(ptr noundef %75)
  %77 = icmp ne i32 %76, 0
  br i1 %77, label %78, label %131

78:                                               ; preds = %74
  %79 = load ptr, ptr %3, align 8
  %80 = getelementptr inbounds %struct.Nwk_Man_t_, ptr %79, i32 0, i32 8
  %81 = load ptr, ptr %80, align 8
  %82 = icmp ne ptr %81, null
  br i1 %82, label %83, label %130

83:                                               ; preds = %78
  %84 = load ptr, ptr %3, align 8
  %85 = getelementptr inbounds %struct.Nwk_Man_t_, ptr %84, i32 0, i32 8
  %86 = load ptr, ptr %85, align 8
  %87 = load ptr, ptr %4, align 8
  %88 = getelementptr inbounds %struct.Nwk_Obj_t_, ptr %87, i32 0, i32 4
  %89 = load i32, ptr %88, align 8
  %90 = lshr i32 %89, 7
  %91 = call i32 @Tim_ManBoxForCi(ptr noundef %86, i32 noundef %90)
  store i32 %91, ptr %8, align 4
  %92 = load i32, ptr %8, align 4
  %93 = icmp sge i32 %92, 0
  br i1 %93, label %94, label %129

94:                                               ; preds = %83
  %95 = load ptr, ptr %3, align 8
  %96 = getelementptr inbounds %struct.Nwk_Man_t_, ptr %95, i32 0, i32 8
  %97 = load ptr, ptr %96, align 8
  %98 = load i32, ptr %8, align 4
  %99 = call i32 @Tim_ManBoxInputFirst(ptr noundef %97, i32 noundef %98)
  store i32 %99, ptr %9, align 4
  %100 = load ptr, ptr %3, align 8
  %101 = getelementptr inbounds %struct.Nwk_Man_t_, ptr %100, i32 0, i32 8
  %102 = load ptr, ptr %101, align 8
  %103 = load i32, ptr %8, align 4
  %104 = call i32 @Tim_ManBoxInputNum(ptr noundef %102, i32 noundef %103)
  store i32 %104, ptr %10, align 4
  store i32 0, ptr %7, align 4
  br label %105

105:                                              ; preds = %125, %94
  %106 = load i32, ptr %7, align 4
  %107 = load i32, ptr %10, align 4
  %108 = icmp slt i32 %106, %107
  br i1 %108, label %109, label %128

109:                                              ; preds = %105
  %110 = load ptr, ptr %3, align 8
  %111 = load i32, ptr %9, align 4
  %112 = load i32, ptr %7, align 4
  %113 = add nsw i32 %111, %112
  %114 = call ptr @Nwk_ManCo(ptr noundef %110, i32 noundef %113)
  store ptr %114, ptr %5, align 8
  %115 = load ptr, ptr %5, align 8
  %116 = call i32 @Nwk_ObjIsTravIdCurrent(ptr noundef %115)
  %117 = icmp ne i32 %116, 0
  br i1 %117, label %124, label %118

118:                                              ; preds = %109
  %119 = load i32, ptr %8, align 4
  %120 = load ptr, ptr %5, align 8
  %121 = getelementptr inbounds %struct.Nwk_Obj_t_, ptr %120, i32 0, i32 5
  %122 = load i32, ptr %121, align 4
  %123 = call i32 (ptr, ...) @printf(ptr noundef @.str.1, i32 noundef %119, i32 noundef %122)
  store i32 0, ptr %2, align 4
  br label %140

124:                                              ; preds = %109
  br label %125

125:                                              ; preds = %124
  %126 = load i32, ptr %7, align 4
  %127 = add nsw i32 %126, 1
  store i32 %127, ptr %7, align 4
  br label %105, !llvm.loop !6

128:                                              ; preds = %105
  br label %129

129:                                              ; preds = %128, %83
  br label %130

130:                                              ; preds = %129, %78
  br label %132

131:                                              ; preds = %74
  br label %132

132:                                              ; preds = %131, %130
  br label %133

133:                                              ; preds = %132, %73
  %134 = load ptr, ptr %4, align 8
  call void @Nwk_ObjSetTravIdCurrent(ptr noundef %134)
  br label %135

135:                                              ; preds = %133, %30
  br label %136

136:                                              ; preds = %135
  %137 = load i32, ptr %6, align 4
  %138 = add nsw i32 %137, 1
  store i32 %138, ptr %6, align 4
  br label %12, !llvm.loop !7

139:                                              ; preds = %25
  store i32 1, ptr %2, align 4
  br label %140

140:                                              ; preds = %139, %118, %61
  %141 = load i32, ptr %2, align 4
  ret i32 %141
}