; Function Attrs: nounwind uwtable
define range(i32 0, 2) i32 @Nwk_ManVerifyTopoOrder(ptr noundef %0) local_unnamed_addr #0 {
  tail call void @Nwk_ManIncrementTravId(ptr noundef %0) #9
  %2 = getelementptr inbounds nuw i8, ptr %0, i64 32
  %3 = load ptr, ptr %2, align 8
  %4 = getelementptr i8, ptr %3, i64 4
  %.val72 = load i32, ptr %4, align 4
  %5 = icmp sgt i32 %.val72, 0
  br i1 %5, label %.lr.ph74, label %.critedge

.lr.ph74:                                         ; preds = %1
  %6 = getelementptr inbounds nuw i8, ptr %0, i64 72
  %7 = getelementptr i8, ptr %0, i64 24
  br label %8

8:                                                ; preds = %.lr.ph74, %63
  %9 = phi ptr [ %3, %.lr.ph74 ], [ %64, %63 ]
  %indvars.iv89 = phi i64 [ 0, %.lr.ph74 ], [ %indvars.iv.next90, %63 ]
  %10 = getelementptr i8, ptr %9, i64 8
  %.val50 = load ptr, ptr %10, align 8
  %11 = getelementptr inbounds nuw ptr, ptr %.val50, i64 %indvars.iv89
  %12 = load ptr, ptr %11, align 8
  %13 = icmp eq ptr %12, null
  br i1 %13, label %63, label %14

14:                                               ; preds = %8
  %15 = getelementptr i8, ptr %12, i64 32
  %.val51 = load i32, ptr %15, align 8
  %16 = and i32 %.val51, 7
  switch i32 %16, label %.critedge2 [
    i32 3, label %17
    i32 2, label %17
    i32 1, label %36
  ]

17:                                               ; preds = %14, %14
  %18 = getelementptr inbounds nuw i8, ptr %12, i64 60
  %19 = load i32, ptr %18, align 4
  %20 = icmp sgt i32 %19, 0
  br i1 %20, label %.lr.ph70, label %.critedge2

.lr.ph70:                                         ; preds = %17
  %21 = getelementptr inbounds nuw i8, ptr %12, i64 72
  %22 = load ptr, ptr %21, align 8
  %wide.trip.count87 = zext nneg i32 %19 to i64
  br label %24

23:                                               ; preds = %27
  %indvars.iv.next85 = add nuw nsw i64 %indvars.iv84, 1
  %exitcond88.not = icmp eq i64 %indvars.iv.next85, %wide.trip.count87
  br i1 %exitcond88.not, label %.critedge2, label %24, !llvm.loop !4

24:                                               ; preds = %.lr.ph70, %23
  %indvars.iv84 = phi i64 [ 0, %.lr.ph70 ], [ %indvars.iv.next85, %23 ]
  %25 = getelementptr inbounds nuw ptr, ptr %22, i64 %indvars.iv84
  %26 = load ptr, ptr %25, align 8
  %.not48 = icmp eq ptr %26, null
  br i1 %.not48, label %.critedge2, label %27

27:                                               ; preds = %24
  %.val53 = load ptr, ptr %26, align 8
  %28 = getelementptr i8, ptr %26, i64 40
  %.val54 = load i32, ptr %28, align 8
  %29 = getelementptr i8, ptr %.val53, i64 104
  %.val53.val = load i32, ptr %29, align 8
  %.not60 = icmp eq i32 %.val54, %.val53.val
  br i1 %.not60, label %23, label %30

30:                                               ; preds = %27
  %31 = getelementptr inbounds nuw i8, ptr %12, i64 36
  %32 = load i32, ptr %31, align 4
  %33 = getelementptr inbounds nuw i8, ptr %26, i64 36
  %34 = load i32, ptr %33, align 4
  %35 = tail call i32 (ptr, ...) @printf(ptr noundef nonnull dereferenceable(1) @.str, i32 noundef %32, i32 noundef %34)
  br label %.critedge

36:                                               ; preds = %14
  %37 = load ptr, ptr %6, align 8
  %.not46 = icmp eq ptr %37, null
  br i1 %.not46, label %.critedge2, label %38

38:                                               ; preds = %36
  %39 = lshr i32 %.val51, 7
  %40 = tail call i32 @Tim_ManBoxForCi(ptr noundef nonnull %37, i32 noundef %39) #9
  %41 = icmp sgt i32 %40, -1
  br i1 %41, label %42, label %.critedge2

42:                                               ; preds = %38
  %43 = load ptr, ptr %6, align 8
  %44 = tail call i32 @Tim_ManBoxInputFirst(ptr noundef %43, i32 noundef %40) #9
  %45 = load ptr, ptr %6, align 8
  %46 = tail call i32 @Tim_ManBoxInputNum(ptr noundef %45, i32 noundef %40) #9
  %47 = icmp sgt i32 %46, 0
  br i1 %47, label %.lr.ph, label %.critedge2

.lr.ph:                                           ; preds = %42
  %.val58 = load ptr, ptr %7, align 8
  %48 = getelementptr i8, ptr %.val58, i64 8
  %.val58.val = load ptr, ptr %48, align 8
  %49 = sext i32 %44 to i64
  %wide.trip.count = zext nneg i32 %46 to i64
  %invariant.gep = getelementptr ptr, ptr %.val58.val, i64 %49
  br label %51

50:                                               ; preds = %51
  %indvars.iv.next = add nuw nsw i64 %indvars.iv, 1
  %exitcond.not = icmp eq i64 %indvars.iv.next, %wide.trip.count
  br i1 %exitcond.not, label %.critedge2, label %51, !llvm.loop !6

51:                                               ; preds = %.lr.ph, %50
  %indvars.iv = phi i64 [ 0, %.lr.ph ], [ %indvars.iv.next, %50 ]
  %gep = getelementptr ptr, ptr %invariant.gep, i64 %indvars.iv
  %52 = load ptr, ptr %gep, align 8
  %.val55 = load ptr, ptr %52, align 8
  %53 = getelementptr i8, ptr %52, i64 40
  %.val56 = load i32, ptr %53, align 8
  %54 = getelementptr i8, ptr %.val55, i64 104
  %.val55.val = load i32, ptr %54, align 8
  %.not62 = icmp eq i32 %.val56, %.val55.val
  br i1 %.not62, label %50, label %55

55:                                               ; preds = %51
  %56 = getelementptr inbounds nuw i8, ptr %52, i64 36
  %57 = load i32, ptr %56, align 4
  %58 = tail call i32 (ptr, ...) @printf(ptr noundef nonnull dereferenceable(1) @.str.1, i32 noundef %40, i32 noundef %57)
  br label %.critedge

.critedge2:                                       ; preds = %50, %23, %24, %42, %17, %14, %38, %36
  %59 = load ptr, ptr %12, align 8
  %60 = getelementptr inbounds nuw i8, ptr %59, i64 104
  %61 = load i32, ptr %60, align 8
  %62 = getelementptr inbounds nuw i8, ptr %12, i64 40
  store i32 %61, ptr %62, align 8
  %.pre = load ptr, ptr %2, align 8
  br label %63

63:                                               ; preds = %.critedge2, %8
  %64 = phi ptr [ %.pre, %.critedge2 ], [ %9, %8 ]
  %indvars.iv.next90 = add nuw nsw i64 %indvars.iv89, 1
  %65 = getelementptr i8, ptr %64, i64 4
  %.val = load i32, ptr %65, align 4
  %66 = sext i32 %.val to i64
  %67 = icmp slt i64 %indvars.iv.next90, %66
  br i1 %67, label %8, label %.critedge, !llvm.loop !7

.critedge:                                        ; preds = %63, %1, %55, %30
  %.0 = phi i32 [ 0, %30 ], [ 0, %55 ], [ 1, %1 ], [ 1, %63 ]
  ret i32 %.0
}